target datalayout = "e-m:e-p270:32:32-p271:32:32-p272:64:64-i64:64-i128:128-f80:128-n8:16:32:64-S128"
target triple = "x86_64-pc-linux-gnu"

%"class.sat::literal" = type { i32 }
%class.svector.195 = type { %class.vector.196 }
%class.vector.196 = type { ptr }
%"class.smt::theory_pb::card" = type <{ %"class.sat::literal", [4 x i8], %class.svector.195, i32, i32, i32, i8, [3 x i8] }>

@_ZN3smtL12true_literalE = internal global %"class.sat::literal" zeroinitializer, align 4
@_ZN3smtL13false_literalE = internal global %"class.sat::literal" zeroinitializer, align 4

; Function Attrs: mustprogress uwtable
define linkonce_odr hidden noundef nonnull align 8 dereferenceable(8) ptr @_ZN6vectorIN3sat7literalELb0EjE9push_backERKS1_(ptr noundef nonnull align 8 dereferenceable(8) %0, ptr noundef nonnull align 4 dereferenceable(4) %1) #6 comdat align 2 {
  %3 = alloca ptr, align 8
  %4 = alloca ptr, align 8
  store ptr %0, ptr %3, align 8, !tbaa !621
  store ptr %1, ptr %4, align 8, !tbaa !3
  %5 = load ptr, ptr %3, align 8
  %6 = getelementptr inbounds nuw %class.vector.196, ptr %5, i32 0, i32 0
  %7 = load ptr, ptr %6, align 8, !tbaa !623
  %8 = icmp eq ptr %7, null
  br i1 %8, label %19, label %9

9:                                                ; preds = %2
  %10 = getelementptr inbounds nuw %class.vector.196, ptr %5, i32 0, i32 0
  %11 = load ptr, ptr %10, align 8, !tbaa !623
  %12 = getelementptr inbounds i32, ptr %11, i64 -1
  %13 = load i32, ptr %12, align 4, !tbaa !8
  %14 = getelementptr inbounds nuw %class.vector.196, ptr %5, i32 0, i32 0
  %15 = load ptr, ptr %14, align 8, !tbaa !623
  %16 = getelementptr inbounds i32, ptr %15, i64 -2
  %17 = load i32, ptr %16, align 4, !tbaa !8
  %18 = icmp eq i32 %13, %17
  br i1 %18, label %19, label %20

19:                                               ; preds = %9, %2
  call void @_ZN6vectorIN3sat7literalELb0EjE13expand_vectorEv(ptr noundef nonnull align 8 dereferenceable(8) %5)
  br label %20

20:                                               ; preds = %19, %9
  %21 = getelementptr inbounds nuw %class.vector.196, ptr %5, i32 0, i32 0
  %22 = load ptr, ptr %21, align 8, !tbaa !623
  %23 = getelementptr inbounds nuw %class.vector.196, ptr %5, i32 0, i32 0
  %24 = load ptr, ptr %23, align 8, !tbaa !623
  %25 = getelementptr inbounds i32, ptr %24, i64 -1
  %26 = load i32, ptr %25, align 4, !tbaa !8
  %27 = zext i32 %26 to i64
  %28 = getelementptr inbounds nuw %"class.sat::literal", ptr %22, i64 %27
  %29 = load ptr, ptr %4, align 8, !tbaa !3
  call void @llvm.memcpy.p0.p0.i64(ptr align 4 %28, ptr align 4 %29, i64 4, i1 false), !tbaa.struct !42
  %30 = getelementptr inbounds nuw %class.vector.196, ptr %5, i32 0, i32 0
  %31 = load ptr, ptr %30, align 8, !tbaa !623
  %32 = getelementptr inbounds i32, ptr %31, i64 -1
  %33 = load i32, ptr %32, align 4, !tbaa !8
  %34 = add i32 %33, 1
  store i32 %34, ptr %32, align 4, !tbaa !8
  ret ptr %5
}

; Function Attrs: inlinehint mustprogress nounwind uwtable
define linkonce_odr hidden noundef zeroext i1 @_ZN3sateqERKNS_7literalES2_(ptr noundef nonnull align 4 dereferenceable(4) %0, ptr noundef nonnull align 4 dereferenceable(4) %1) #8 comdat {
  %3 = alloca ptr, align 8
  %4 = alloca ptr, align 8
  store ptr %0, ptr %3, align 8, !tbaa !3
  store ptr %1, ptr %4, align 8, !tbaa !3
  %5 = load ptr, ptr %3, align 8, !tbaa !3
  %6 = getelementptr inbounds nuw %"class.sat::literal", ptr %5, i32 0, i32 0
  %7 = load i32, ptr %6, align 4, !tbaa !14
  %8 = load ptr, ptr %4, align 8, !tbaa !3
  %9 = getelementptr inbounds nuw %"class.sat::literal", ptr %8, i32 0, i32 0
  %10 = load i32, ptr %9, align 4, !tbaa !14
  %11 = icmp eq i32 %7, %10
  ret i1 %11
}

; Function Attrs: mustprogress uwtable
define hidden void @_ZN3smt9theory_pb4card7add_argEN3sat7literalE(ptr noundef nonnull align 8 dereferenceable(29) %0, i32 %1) #6 align 2 {
  %3 = alloca %"class.sat::literal", align 4
  %4 = alloca ptr, align 8
  %5 = getelementptr inbounds nuw %"class.sat::literal", ptr %3, i32 0, i32 0
  store i32 %1, ptr %5, align 4
  store ptr %0, ptr %4, align 8, !tbaa !616
  %6 = load ptr, ptr %4, align 8
  %7 = call noundef zeroext i1 @_ZN3sateqERKNS_7literalES2_(ptr noundef nonnull align 4 dereferenceable(4) %3, ptr noundef nonnull align 4 dereferenceable(4) @_ZN3smtL13false_literalE)
  br i1 %7, label %8, label %9

8:                                                ; preds = %2
  br label %24

9:                                                ; preds = %2
  %10 = call noundef zeroext i1 @_ZN3sateqERKNS_7literalES2_(ptr noundef nonnull align 4 dereferenceable(4) %3, ptr noundef nonnull align 4 dereferenceable(4) @_ZN3smtL12true_literalE)
  br i1 %10, label %11, label %20

11:                                               ; preds = %9
  %12 = getelementptr inbounds nuw %"class.smt::theory_pb::card", ptr %6, i32 0, i32 3
  %13 = load i32, ptr %12, align 8, !tbaa !619
  %14 = icmp ugt i32 %13, 0
  br i1 %14, label %15, label %19

15:                                               ; preds = %11
  %16 = getelementptr inbounds nuw %"class.smt::theory_pb::card", ptr %6, i32 0, i32 3
  %17 = load i32, ptr %16, align 8, !tbaa !619
  %18 = add i32 %17, -1
  store i32 %18, ptr %16, align 8, !tbaa !619
  br label %19

19:                                               ; preds = %15, %11
  br label %23

20:                                               ; preds = %9
  %21 = getelementptr inbounds nuw %"class.smt::theory_pb::card", ptr %6, i32 0, i32 2
  %22 = call noundef nonnull align 8 dereferenceable(8) ptr @_ZN6vectorIN3sat7literalELb0EjE9push_backERKS1_(ptr noundef nonnull align 8 dereferenceable(8) %21, ptr noundef nonnull align 4 dereferenceable(4) %3)
  br label %23

23:                                               ; preds = %20, %19
  br label %24

24:                                               ; preds = %8, %23
  ret void
}