; Function Attrs: mustprogress uwtable
define hidden void @_ZN3smt9theory_pb4card7add_argEN3sat7literalE(ptr noundef nonnull align 8 dereferenceable(29) %0, i32 %1) local_unnamed_addr #4 align 2 {
  %3 = load i32, ptr @_ZN3smtL13false_literalE, align 4, !tbaa !11
  %4 = icmp eq i32 %1, %3
  br i1 %4, label %30, label %5

5:                                                ; preds = %2
  %6 = load i32, ptr @_ZN3smtL12true_literalE, align 4, !tbaa !11
  %7 = icmp eq i32 %1, %6
  br i1 %7, label %8, label %13

8:                                                ; preds = %5
  %9 = getelementptr inbounds nuw i8, ptr %0, i64 16
  %10 = load i32, ptr %9, align 8, !tbaa !667
  %.not = icmp eq i32 %10, 0
  br i1 %.not, label %30, label %11

11:                                               ; preds = %8
  %12 = add i32 %10, -1
  store i32 %12, ptr %9, align 8, !tbaa !667
  br label %30

13:                                               ; preds = %5
  %14 = getelementptr inbounds nuw i8, ptr %0, i64 8
  %15 = load ptr, ptr %14, align 8, !tbaa !666
  %16 = icmp eq ptr %15, null
  br i1 %16, label %23, label %17

17:                                               ; preds = %13
  %18 = getelementptr inbounds i8, ptr %15, i64 -4
  %19 = load i32, ptr %18, align 4, !tbaa !9
  %20 = getelementptr inbounds i8, ptr %15, i64 -8
  %21 = load i32, ptr %20, align 4, !tbaa !9
  %22 = icmp eq i32 %19, %21
  br i1 %22, label %23, label %_ZN6vectorIN3sat7literalELb0EjE9push_backERKS1_.exit

23:                                               ; preds = %17, %13
  tail call void @_ZN6vectorIN3sat7literalELb0EjE13expand_vectorEv(ptr noundef nonnull align 8 dereferenceable(8) %14)
  %.pre.i = load ptr, ptr %14, align 8, !tbaa !666
  %.phi.trans.insert.i = getelementptr inbounds i8, ptr %.pre.i, i64 -4
  %.pre2.i = load i32, ptr %.phi.trans.insert.i, align 4, !tbaa !9
  br label %_ZN6vectorIN3sat7literalELb0EjE9push_backERKS1_.exit

_ZN6vectorIN3sat7literalELb0EjE9push_backERKS1_.exit: ; preds = %17, %23
  %24 = phi i32 [ %.pre2.i, %23 ], [ %19, %17 ]
  %25 = phi ptr [ %.pre.i, %23 ], [ %15, %17 ]
  %26 = getelementptr inbounds i8, ptr %25, i64 -4
  %27 = zext i32 %24 to i64
  %28 = getelementptr inbounds nuw %"class.sat::literal", ptr %25, i64 %27
  store i32 %1, ptr %28, align 4, !tbaa !9
  %29 = add i32 %24, 1
  store i32 %29, ptr %26, align 4, !tbaa !9
  br label %30

30:                                               ; preds = %_ZN6vectorIN3sat7literalELb0EjE9push_backERKS1_.exit, %11, %8, %2
  ret void
}